Turbo Assembler	 Version 4.1	    02/13/26 19:40:25	    Page 1
vram.asm



      1	0000			     .model tiny
      2
      3	0000			     .data
      4
      5	      =	0dh, 0ah	     CRLF		 equ 0dh, 0ah
      6
      7	0000  68 65 6C 6C 6F 20	77+  DEFAULT_STR     db	'hello world', CRLF
      8	      6F 72 6C 64 0D 0A
      9	      =000B		     DEFAULT_STR_LEN equ $ - DEFAULT_STR - 2
     10
     11	000D			     .code
     12				     org 100h
     13
     14	      =B800		     VRAMSEGMENT     equ 0b800h
     15	      =0080		     ARGCNT_ADDR     equ 80h
     16	      =0081		     CMDARG_ADDR     equ 81h
     17	      =0004		     COLATTRIB	     equ 00000100b
     18	      =0019		     SCREENH	     equ 19h
     19	      =00A0		     SCREENW	     equ 2*50h
     20	      =0004		     B_OFFSET	 equ 4h
     21
     22				     locals @@
     23
     24	0100  E8 0005		     Start:		 call Main
     25
     26	0103  B8 004C				     mov ax, 004ch
     27	0106  CD 21				     int 21h
     28
     29				     ;-------------------------------------
     30				     ; Main func
     31				     ;-------------------------------------
     32	0108			     Main		 proc
     33
     34	0108  55				     push bp
     35	0109  8B EC				     mov bp, sp
     36
     37	010B  B8 B800				     mov ax, VRAMSEGMENT
     38	010E  8E C0				     mov es, ax
     39
     40	0110  BF 07D0				     mov di, SCREENW * (SCREENH	/ 2) + SCREENW / 2
     41	0113  BE 0080				     mov si, ARGCNT_ADDR
     42	0116  8A 0C				     mov byte ptr cl, [si]	 ; cx =	str_len
     43
     44	0118  80 F9 00				     cmp cl, 0
     45	011B  74 06				     je	@@init_default
     46
     47	011D  BE 0081				     mov si, CMDARG_ADDR	     ; si = &cmd_str
     48	0120  EB 06 90				     jmp @@init_end
     49
     50	0123  BE 0000r		     @@init_default: mov si, offset DEFAULT_STR	     ; si = &default_str
     51	0126  B1 0B				     mov cl, DEFAULT_STR_LEN
     52
     53	0128  B4 04		     @@init_end:	 mov ah, COLATTRIB
     54	012A  8B D1				     mov dx, cx
     55	012C  D1 EA				     shr dx, 1h
     56	012E  D1 E2				     sal dx, 1h
     57	0130  2B FA				     sub di, dx				 ; pox_y -= str_len / 2
Turbo Assembler	 Version 4.1	    02/13/26 19:40:25	    Page 2
vram.asm



     58
     59	0132  57				     push di
     60	0133  51				     push cx
     61
     62	0134  E8 0031				     call PrintStr
     63
     64	0137  B0 01				     mov al, 1h
     65
     66	0139  8B 7E FE				     mov word ptr di, [bp-2]
     67	013C  81 EF 00A4			     sub di, B_OFFSET +	SCREENW
     68	0140  B1 03				     mov cl, 3h
     69	0142  32 ED				     xor ch, ch
     70
     71	0144  E8 0028				     call VerticalLine
     72
     73	0147  8B 4E FC				     mov word ptr cx, [bp-4]
     74	014A  83 C1 04				     add cx, B_OFFSET
     75
     76	014D  E8 0039				     call HorizontalLine
     77
     78	0150  B9 0003				     mov cx, 3h
     79	0153  B5 01				     mov ch, 1h
     80
     81	0155  E8 0017				     call VerticalLine
     82
     83	0158  8B 4E FC				     mov byte ptr cx, [bp-4]
     84	015B  83 C1 04				     add cx, B_OFFSET
     85	015E  B5 01				     mov ch, 1h
     86
     87	0160  E8 0026				     call HorizontalLine
     88
     89	0163  83 C4 04				     add sp, 4h
     90	0166  5D				     pop bp
     91	0167  C3				     ret
     92	0168			     Main	     endp
     93
     94				     ;-------------------------------------
     95
     96
     97				     ;-------------------------------------
     98				     ; Print string
     99				     ;
    100				     ; Entry: DS:SI -->	string
    101				     ;	      ES:DI -->	vram addr
    102				     ;	      CX    =	string length
    103				     ; Destr: SI, DI, CX
    104				     ;-------------------------------------
    105
    106	0168			     PrintStr	     proc
    107
    108	0168  AC		     @@loopv:	     lodsb		     ; al = ds:[si]; ++si
    109	0169  AB				     stosw		     ; es:[di] = ah; ++di
    110	016A  FE C9				     dec cl
    111	016C  75 FA				     jnz @@loopv
    112
    113	016E  C3				     ret
    114	016F			     PrintStr	     endp
Turbo Assembler	 Version 4.1	    02/13/26 19:40:25	    Page 3
vram.asm



    115
    116				     ;-------------------------------------
    117
    118				     ;-------------------------------------
    119				     ; Ouputs vertical line of given length
    120				     ;
    121				     ; Entry: ES:DI = first line point
    122				     ;	      AL    = char
    123				     ;	      AH    = color attribute
    124				     ;	      CL    = length
    125				     ;	      CH    = direction
    126				     ; Exit:  DI  --> last line	point
    127				     ; Destr: CX
    128				     ;-------------------------------------
    129
    130	016F			     VerticalLine    proc
    131
    132	016F  80 FD 00				     cmp ch, 0
    133	0172  74 06				     je	@@if
    134	0174  BA FF60				     mov dx, -SCREENW
    135	0177  EB 04 90				     jmp @@endif
    136	017A  BA 00A0		     @@if:	     mov dx, SCREENW
    137	017D			     @@endif:
    138
    139	017D  26: 89 05		     @@loopv:	     mov word ptr es:[di], ax
    140	0180  03 FA				     add di, dx
    141	0182  FE C9				     dec cl
    142	0184  75 F7				     jnz @@loopv
    143
    144	0186  2B FA				     sub di, dx
    145
    146	0188  C3				     ret
    147	0189			     VerticalLine    endp
    148
    149				     ;-------------------------------------
    150
    151				     ;-------------------------------------
    152				     ; Ouputs horizontal line of given length
    153				     ;
    154				     ; Entry: ES:DI = first line point
    155				     ;	      AL    = char
    156				     ;	      AH    = color attribute
    157				     ;	      CL    = length
    158				     ;	      CH    = direction
    159				     ; Exit:  DI  --> last line	point
    160				     ; Destr: CL, DX
    161				     ;-------------------------------------
    162
    163	0189			     HorizontalLine  proc
    164
    165	0189  80 FD 00				     cmp ch, 0
    166	018C  74 06				     je	@@if
    167	018E  BA FFFE				     mov dx, -2h
    168	0191  EB 04 90				     jmp @@endif
    169	0194  BA 0002		     @@if:	     mov dx, 2h
    170	0197			     @@endif:
    171
Turbo Assembler	 Version 4.1	    02/13/26 19:40:25	    Page 4
vram.asm



    172	0197  26: 89 05		     @@loopv:	     mov word ptr es:[di], ax
    173	019A  03 FA				     add di, dx
    174	019C  FE C9				     dec cl
    175	019E  75 F7				     jnz @@loopv
    176
    177	01A0  2B FA				     sub di, dx
    178
    179	01A2  C3				     ret
    180	01A3			     HorizontalLine  endp
    181
    182				     ;-------------------------------------
    183
    184				     end Start
Turbo Assembler	 Version 4.1	    02/13/26 19:40:25	    Page 5
Symbol Table




Symbol Name			  Type	 Value

??DATE				  Text	 "02/13/26"
??FILENAME			  Text	 "vram	  "
??TIME				  Text	 "19:40:25"
??VERSION			  Number 040A
@32BIT				  Text	 0
@@ENDIF				  Near	 DGROUP:017D
@@ENDIF				  Near	 DGROUP:0197
@@IF				  Near	 DGROUP:017A
@@IF				  Near	 DGROUP:0194
@@INIT_DEFAULT			  Near	 DGROUP:0123
@@INIT_END			  Near	 DGROUP:0128
@@LOOPV				  Near	 DGROUP:0168
@@LOOPV				  Near	 DGROUP:017D
@@LOOPV				  Near	 DGROUP:0197
@CODE				  Text	 DGROUP
@CODESIZE			  Text	 0
@CPU				  Text	 0101H
@CURSEG				  Text	 _TEXT
@DATA				  Text	 DGROUP
@DATASIZE			  Text	 0
@FILENAME			  Text	 VRAM
@INTERFACE			  Text	 000H
@MODEL				  Text	 1
@STACK				  Text	 DGROUP
@WORDSIZE			  Text	 2
ARGCNT_ADDR			  Number 0080
B_OFFSET			  Number 0004
CMDARG_ADDR			  Number 0081
COLATTRIB			  Number 0004
CRLF				  Text	 0dh, 0ah
DEFAULT_STR			  Byte	 DGROUP:0000
DEFAULT_STR_LEN			  Number 000B
HORIZONTALLINE			  Near	 DGROUP:0189
MAIN				  Near	 DGROUP:0108
PRINTSTR			  Near	 DGROUP:0168
SCREENH				  Number 0019
SCREENW				  Number 00A0
START				  Near	 DGROUP:0100
VERTICALLINE			  Near	 DGROUP:016F
VRAMSEGMENT			  Number B800

Groups & Segments		  Bit Size Align  Combine Class

DGROUP				  Group
  _DATA				  16  000D Word	  Public  DATA
  _TEXT				  16  01A3 Word	  Public  CODE
